target datalayout = "e-m:e-p270:32:32-p271:32:32-p272:64:64-i64:64-i128:128-f80:128-n8:16:32:64-S128"
target triple = "x86_64-pc-linux-gnu"

%struct.archive_read = type { %struct.archive, ptr, i32, i64, i64, %struct.archive_read_client, [16 x %struct.archive_read_filter_bidder], ptr, i32, i64, i32, i32, [16 x %struct.archive_format_descriptor], ptr, ptr, ptr, %struct.anon }
%struct.archive = type { i32, i32, ptr, i32, ptr, i32, i32, ptr, %struct.archive_string, ptr, i32, i32, ptr, ptr, i64, i64, i64, i8, i64 }
%struct.archive_string = type { ptr, i64, i64 }
%struct.archive_read_client = type { ptr, ptr, ptr, ptr, ptr, ptr, i32, i32, i64, ptr }
%struct.archive_read_filter_bidder = type { ptr, ptr, ptr }
%struct.archive_format_descriptor = type { ptr, ptr, ptr, ptr, ptr, ptr, ptr, ptr, ptr, ptr, ptr }
%struct.anon = type { ptr, ptr, i32, ptr, ptr }
%struct.tar = type { %struct.archive_string, %struct.archive_string, %struct.archive_string, %struct.archive_string, %struct.archive_string, %struct.archive_string, i32, i64, i64, i64, i64, i64, ptr, ptr, i64, i64, i32, i32, i8, i8, %struct.archive_string, ptr, ptr, ptr, ptr, i32, i32, i32, i32, i32 }
%struct.sparse_block = type { ptr, i64, i64, i32 }

@.str.130 = private unnamed_addr constant [14 x i8] c"Out of memory\00", align 1
@.str.131 = private unnamed_addr constant [26 x i8] c"Malformed sparse map data\00", align 1

; Function Attrs: nounwind uwtable
define internal void @tar_flush_unconsumed(ptr noundef %0, ptr noundef %1) #0 {
  %3 = alloca ptr, align 8
  %4 = alloca ptr, align 8
  store ptr %0, ptr %3, align 8, !tbaa !11
  store ptr %1, ptr %4, align 8, !tbaa !66
  %5 = load ptr, ptr %4, align 8, !tbaa !66
  %6 = load i64, ptr %5, align 8, !tbaa !46
  %7 = icmp ne i64 %6, 0
  br i1 %7, label %8, label %14

8:                                                ; preds = %2
  %9 = load ptr, ptr %3, align 8, !tbaa !11
  %10 = load ptr, ptr %4, align 8, !tbaa !66
  %11 = load i64, ptr %10, align 8, !tbaa !46
  %12 = call i64 @__archive_read_consume(ptr noundef %9, i64 noundef %11)
  %13 = load ptr, ptr %4, align 8, !tbaa !66
  store i64 0, ptr %13, align 8, !tbaa !46
  br label %14

14:                                               ; preds = %8, %2
  ret void
}

; Function Attrs: nounwind uwtable
define internal i32 @gnu_add_sparse_entry(ptr noundef %0, ptr noundef %1, i64 noundef %2, i64 noundef %3) #0 {
  %5 = alloca i32, align 4
  %6 = alloca ptr, align 8
  %7 = alloca ptr, align 8
  %8 = alloca i64, align 8
  %9 = alloca i64, align 8
  %10 = alloca ptr, align 8
  %11 = alloca i32, align 4
  store ptr %0, ptr %6, align 8, !tbaa !11
  store ptr %1, ptr %7, align 8, !tbaa !13
  store i64 %2, ptr %8, align 8, !tbaa !46
  store i64 %3, ptr %9, align 8, !tbaa !46
  call void @llvm.lifetime.start.p0(i64 8, ptr %10) #10
  %12 = call noalias ptr @calloc(i64 noundef 1, i64 noundef 32) #11
  store ptr %12, ptr %10, align 8, !tbaa !54
  %13 = load ptr, ptr %10, align 8, !tbaa !54
  %14 = icmp eq ptr %13, null
  br i1 %14, label %15, label %18

15:                                               ; preds = %4
  %16 = load ptr, ptr %6, align 8, !tbaa !11
  %17 = getelementptr inbounds nuw %struct.archive_read, ptr %16, i32 0, i32 0
  call void (ptr, i32, ptr, ...) @archive_set_error(ptr noundef %17, i32 noundef 12, ptr noundef @.str.130)
  store i32 -30, ptr %5, align 4
  store i32 1, ptr %11, align 4
  br label %57

18:                                               ; preds = %4
  %19 = load ptr, ptr %7, align 8, !tbaa !13
  %20 = getelementptr inbounds nuw %struct.tar, ptr %19, i32 0, i32 13
  %21 = load ptr, ptr %20, align 8, !tbaa !72
  %22 = icmp ne ptr %21, null
  br i1 %22, label %23, label %29

23:                                               ; preds = %18
  %24 = load ptr, ptr %10, align 8, !tbaa !54
  %25 = load ptr, ptr %7, align 8, !tbaa !13
  %26 = getelementptr inbounds nuw %struct.tar, ptr %25, i32 0, i32 13
  %27 = load ptr, ptr %26, align 8, !tbaa !72
  %28 = getelementptr inbounds nuw %struct.sparse_block, ptr %27, i32 0, i32 0
  store ptr %24, ptr %28, align 8, !tbaa !59
  br label %33

29:                                               ; preds = %18
  %30 = load ptr, ptr %10, align 8, !tbaa !54
  %31 = load ptr, ptr %7, align 8, !tbaa !13
  %32 = getelementptr inbounds nuw %struct.tar, ptr %31, i32 0, i32 12
  store ptr %30, ptr %32, align 8, !tbaa !52
  br label %33

33:                                               ; preds = %29, %23
  %34 = load ptr, ptr %10, align 8, !tbaa !54
  %35 = load ptr, ptr %7, align 8, !tbaa !13
  %36 = getelementptr inbounds nuw %struct.tar, ptr %35, i32 0, i32 13
  store ptr %34, ptr %36, align 8, !tbaa !72
  %37 = load i64, ptr %9, align 8, !tbaa !46
  %38 = icmp slt i64 %37, 0
  br i1 %38, label %47, label %39

39:                                               ; preds = %33
  %40 = load i64, ptr %8, align 8, !tbaa !46
  %41 = icmp slt i64 %40, 0
  br i1 %41, label %47, label %42

42:                                               ; preds = %39
  %43 = load i64, ptr %8, align 8, !tbaa !46
  %44 = load i64, ptr %9, align 8, !tbaa !46
  %45 = sub nsw i64 9223372036854775807, %44
  %46 = icmp sgt i64 %43, %45
  br i1 %46, label %47, label %50

47:                                               ; preds = %42, %39, %33
  %48 = load ptr, ptr %6, align 8, !tbaa !11
  %49 = getelementptr inbounds nuw %struct.archive_read, ptr %48, i32 0, i32 0
  call void (ptr, i32, ptr, ...) @archive_set_error(ptr noundef %49, i32 noundef -1, ptr noundef @.str.131)
  store i32 -30, ptr %5, align 4
  store i32 1, ptr %11, align 4
  br label %57

50:                                               ; preds = %42
  %51 = load i64, ptr %8, align 8, !tbaa !46
  %52 = load ptr, ptr %10, align 8, !tbaa !54
  %53 = getelementptr inbounds nuw %struct.sparse_block, ptr %52, i32 0, i32 1
  store i64 %51, ptr %53, align 8, !tbaa !57
  %54 = load i64, ptr %9, align 8, !tbaa !46
  %55 = load ptr, ptr %10, align 8, !tbaa !54
  %56 = getelementptr inbounds nuw %struct.sparse_block, ptr %55, i32 0, i32 2
  store i64 %54, ptr %56, align 8, !tbaa !58
  store i32 0, ptr %5, align 4
  store i32 1, ptr %11, align 4
  br label %57

57:                                               ; preds = %50, %47, %15
  call void @llvm.lifetime.end.p0(i64 8, ptr %10) #10
  %58 = load i32, ptr %5, align 4
  ret i32 %58
}

; Function Attrs: nounwind uwtable
define internal void @gnu_clear_sparse_list(ptr noundef %0) #0 {
  %2 = alloca ptr, align 8
  %3 = alloca ptr, align 8
  store ptr %0, ptr %2, align 8, !tbaa !13
  call void @llvm.lifetime.start.p0(i64 8, ptr %3) #10
  br label %4

4:                                                ; preds = %9, %1
  %5 = load ptr, ptr %2, align 8, !tbaa !13
  %6 = getelementptr inbounds nuw %struct.tar, ptr %5, i32 0, i32 12
  %7 = load ptr, ptr %6, align 8, !tbaa !52
  %8 = icmp ne ptr %7, null
  br i1 %8, label %9, label %19

9:                                                ; preds = %4
  %10 = load ptr, ptr %2, align 8, !tbaa !13
  %11 = getelementptr inbounds nuw %struct.tar, ptr %10, i32 0, i32 12
  %12 = load ptr, ptr %11, align 8, !tbaa !52
  store ptr %12, ptr %3, align 8, !tbaa !54
  %13 = load ptr, ptr %3, align 8, !tbaa !54
  %14 = getelementptr inbounds nuw %struct.sparse_block, ptr %13, i32 0, i32 0
  %15 = load ptr, ptr %14, align 8, !tbaa !59
  %16 = load ptr, ptr %2, align 8, !tbaa !13
  %17 = getelementptr inbounds nuw %struct.tar, ptr %16, i32 0, i32 12
  store ptr %15, ptr %17, align 8, !tbaa !52
  %18 = load ptr, ptr %3, align 8, !tbaa !54
  call void @free(ptr noundef %18) #10
  br label %4, !llvm.loop !71

19:                                               ; preds = %4
  %20 = load ptr, ptr %2, align 8, !tbaa !13
  %21 = getelementptr inbounds nuw %struct.tar, ptr %20, i32 0, i32 13
  store ptr null, ptr %21, align 8, !tbaa !72
  call void @llvm.lifetime.end.p0(i64 8, ptr %3) #10
  ret void
}

; Function Attrs: nounwind uwtable
define internal i64 @gnu_sparse_10_read(ptr noundef %0, ptr noundef %1, ptr noundef %2) #0 {
  %4 = alloca i64, align 8
  %5 = alloca ptr, align 8
  %6 = alloca ptr, align 8
  %7 = alloca ptr, align 8
  %8 = alloca i64, align 8
  %9 = alloca i32, align 4
  %10 = alloca i64, align 8
  %11 = alloca i64, align 8
  %12 = alloca i64, align 8
  %13 = alloca i64, align 8
  %14 = alloca i32, align 4
  store ptr %0, ptr %5, align 8, !tbaa !11
  store ptr %1, ptr %6, align 8, !tbaa !13
  store ptr %2, ptr %7, align 8, !tbaa !66
  call void @llvm.lifetime.start.p0(i64 8, ptr %8) #10
  call void @llvm.lifetime.start.p0(i64 4, ptr %9) #10
  call void @llvm.lifetime.start.p0(i64 8, ptr %10) #10
  call void @llvm.lifetime.start.p0(i64 8, ptr %11) #10
  call void @llvm.lifetime.start.p0(i64 8, ptr %12) #10
  call void @llvm.lifetime.start.p0(i64 8, ptr %13) #10
  %15 = load ptr, ptr %6, align 8, !tbaa !13
  call void @gnu_clear_sparse_list(ptr noundef %15)
  %16 = load ptr, ptr %6, align 8, !tbaa !13
  %17 = getelementptr inbounds nuw %struct.tar, ptr %16, i32 0, i32 7
  %18 = load i64, ptr %17, align 8, !tbaa !53
  store i64 %18, ptr %13, align 8, !tbaa !46
  %19 = load ptr, ptr %5, align 8, !tbaa !11
  %20 = load ptr, ptr %6, align 8, !tbaa !13
  %21 = load ptr, ptr %7, align 8, !tbaa !66
  %22 = call i64 @gnu_sparse_10_atol(ptr noundef %19, ptr noundef %20, ptr noundef %13, ptr noundef %21)
  %23 = trunc i64 %22 to i32
  store i32 %23, ptr %9, align 4, !tbaa !9
  %24 = load i32, ptr %9, align 4, !tbaa !9
  %25 = icmp slt i32 %24, 0
  br i1 %25, label %26, label %27

26:                                               ; preds = %3
  store i64 -30, ptr %4, align 8
  store i32 1, ptr %14, align 4
  br label %83

27:                                               ; preds = %3
  br label %28

28:                                               ; preds = %56, %27
  %29 = load i32, ptr %9, align 4, !tbaa !9
  %30 = add nsw i32 %29, -1
  store i32 %30, ptr %9, align 4, !tbaa !9
  %31 = icmp sgt i32 %29, 0
  br i1 %31, label %32, label %57

32:                                               ; preds = %28
  %33 = load ptr, ptr %5, align 8, !tbaa !11
  %34 = load ptr, ptr %6, align 8, !tbaa !13
  %35 = load ptr, ptr %7, align 8, !tbaa !66
  %36 = call i64 @gnu_sparse_10_atol(ptr noundef %33, ptr noundef %34, ptr noundef %13, ptr noundef %35)
  store i64 %36, ptr %10, align 8, !tbaa !46
  %37 = load i64, ptr %10, align 8, !tbaa !46
  %38 = icmp slt i64 %37, 0
  br i1 %38, label %39, label %40

39:                                               ; preds = %32
  store i64 -30, ptr %4, align 8
  store i32 1, ptr %14, align 4
  br label %83

40:                                               ; preds = %32
  %41 = load ptr, ptr %5, align 8, !tbaa !11
  %42 = load ptr, ptr %6, align 8, !tbaa !13
  %43 = load ptr, ptr %7, align 8, !tbaa !66
  %44 = call i64 @gnu_sparse_10_atol(ptr noundef %41, ptr noundef %42, ptr noundef %13, ptr noundef %43)
  store i64 %44, ptr %11, align 8, !tbaa !46
  %45 = load i64, ptr %11, align 8, !tbaa !46
  %46 = icmp slt i64 %45, 0
  br i1 %46, label %47, label %48

47:                                               ; preds = %40
  store i64 -30, ptr %4, align 8
  store i32 1, ptr %14, align 4
  br label %83

48:                                               ; preds = %40
  %49 = load ptr, ptr %5, align 8, !tbaa !11
  %50 = load ptr, ptr %6, align 8, !tbaa !13
  %51 = load i64, ptr %10, align 8, !tbaa !46
  %52 = load i64, ptr %11, align 8, !tbaa !46
  %53 = call i32 @gnu_add_sparse_entry(ptr noundef %49, ptr noundef %50, i64 noundef %51, i64 noundef %52)
  %54 = icmp ne i32 %53, 0
  br i1 %54, label %55, label %56

55:                                               ; preds = %48
  store i64 -30, ptr %4, align 8
  store i32 1, ptr %14, align 4
  br label %83

56:                                               ; preds = %48
  br label %28, !llvm.loop !119

57:                                               ; preds = %28
  %58 = load ptr, ptr %5, align 8, !tbaa !11
  %59 = load ptr, ptr %7, align 8, !tbaa !66
  call void @tar_flush_unconsumed(ptr noundef %58, ptr noundef %59)
  %60 = load ptr, ptr %6, align 8, !tbaa !13
  %61 = getelementptr inbounds nuw %struct.tar, ptr %60, i32 0, i32 7
  %62 = load i64, ptr %61, align 8, !tbaa !53
  %63 = load i64, ptr %13, align 8, !tbaa !46
  %64 = sub nsw i64 %62, %63
  store i64 %64, ptr %8, align 8, !tbaa !46
  %65 = load i64, ptr %8, align 8, !tbaa !46
  %66 = sub nsw i64 0, %65
  %67 = and i64 511, %66
  store i64 %67, ptr %12, align 8, !tbaa !46
  %68 = load i64, ptr %12, align 8, !tbaa !46
  %69 = load i64, ptr %13, align 8, !tbaa !46
  %70 = icmp sgt i64 %68, %69
  br i1 %70, label %71, label %72

71:                                               ; preds = %57
  store i64 -30, ptr %4, align 8
  store i32 1, ptr %14, align 4
  br label %83

72:                                               ; preds = %57
  %73 = load i64, ptr %12, align 8, !tbaa !46
  %74 = load ptr, ptr %5, align 8, !tbaa !11
  %75 = load i64, ptr %12, align 8, !tbaa !46
  %76 = call i64 @__archive_read_consume(ptr noundef %74, i64 noundef %75)
  %77 = icmp ne i64 %73, %76
  br i1 %77, label %78, label %79

78:                                               ; preds = %72
  store i64 -30, ptr %4, align 8
  store i32 1, ptr %14, align 4
  br label %83

79:                                               ; preds = %72
  %80 = load i64, ptr %8, align 8, !tbaa !46
  %81 = load i64, ptr %12, align 8, !tbaa !46
  %82 = add nsw i64 %80, %81
  store i64 %82, ptr %4, align 8
  store i32 1, ptr %14, align 4
  br label %83

83:                                               ; preds = %79, %78, %71, %55, %47, %39, %26
  call void @llvm.lifetime.end.p0(i64 8, ptr %13) #10
  call void @llvm.lifetime.end.p0(i64 8, ptr %12) #10
  call void @llvm.lifetime.end.p0(i64 8, ptr %11) #10
  call void @llvm.lifetime.end.p0(i64 8, ptr %10) #10
  call void @llvm.lifetime.end.p0(i64 4, ptr %9) #10
  call void @llvm.lifetime.end.p0(i64 8, ptr %8) #10
  %84 = load i64, ptr %4, align 8
  ret i64 %84
}