; Function Attrs: nounwind uwtable
define internal fastcc i64 @gnu_sparse_10_read(ptr noundef %0, ptr noundef %1, ptr noundef nonnull captures(none) %2) unnamed_addr #0 {
  %4 = alloca i64, align 8
  call void @llvm.lifetime.start.p0(i64 8, ptr nonnull %4) #13
  %5 = getelementptr inbounds nuw i8, ptr %1, i64 192
  %6 = load ptr, ptr %5, align 8, !tbaa !48
  %.not6.i = icmp eq ptr %6, null
  br i1 %.not6.i, label %gnu_clear_sparse_list.exit, label %.lr.ph.i

.lr.ph.i:                                         ; preds = %3, %.lr.ph.i
  %7 = phi ptr [ %9, %.lr.ph.i ], [ %6, %3 ]
  %8 = load ptr, ptr %7, align 8, !tbaa !49
  store ptr %8, ptr %5, align 8, !tbaa !48
  tail call void @free(ptr noundef nonnull %7) #13
  %9 = load ptr, ptr %5, align 8, !tbaa !48
  %.not.i = icmp eq ptr %9, null
  br i1 %.not.i, label %gnu_clear_sparse_list.exit, label %.lr.ph.i, !llvm.loop !51

gnu_clear_sparse_list.exit:                       ; preds = %.lr.ph.i, %3
  %10 = getelementptr inbounds nuw i8, ptr %1, i64 200
  store ptr null, ptr %10, align 8, !tbaa !52
  %11 = getelementptr inbounds nuw i8, ptr %1, i64 152
  %12 = load i64, ptr %11, align 8, !tbaa !73
  store i64 %12, ptr %4, align 8, !tbaa !45
  %13 = call fastcc i64 @gnu_sparse_10_atol(ptr noundef %0, ptr noundef nonnull %1, ptr noundef %4, ptr noundef %2)
  %14 = trunc i64 %13 to i32
  %15 = icmp slt i32 %14, 0
  br i1 %15, label %gnu_add_sparse_entry.exit.thread, label %.preheader

.preheader:                                       ; preds = %gnu_clear_sparse_list.exit
  %.not39 = icmp eq i32 %14, 0
  br i1 %.not39, label %._crit_edge, label %.lr.ph

.lr.ph:                                           ; preds = %.preheader, %gnu_add_sparse_entry.exit
  %.in = phi i32 [ %16, %gnu_add_sparse_entry.exit ], [ %14, %.preheader ]
  %16 = add nsw i32 %.in, -1
  %17 = call fastcc i64 @gnu_sparse_10_atol(ptr noundef %0, ptr noundef nonnull %1, ptr noundef %4, ptr noundef %2)
  %18 = icmp slt i64 %17, 0
  br i1 %18, label %gnu_add_sparse_entry.exit.thread, label %19

19:                                               ; preds = %.lr.ph
  %20 = call fastcc i64 @gnu_sparse_10_atol(ptr noundef %0, ptr noundef nonnull %1, ptr noundef %4, ptr noundef %2)
  %21 = icmp slt i64 %20, 0
  br i1 %21, label %gnu_add_sparse_entry.exit.thread, label %22

22:                                               ; preds = %19
  %23 = tail call noalias dereferenceable_or_null(32) ptr @calloc(i64 noundef 1, i64 noundef 32) #14
  %24 = icmp eq ptr %23, null
  br i1 %24, label %25, label %26

25:                                               ; preds = %22
  tail call void (ptr, i32, ptr, ...) @archive_set_error(ptr noundef %0, i32 noundef 12, ptr noundef nonnull @.str.130) #13
  br label %gnu_add_sparse_entry.exit.thread

26:                                               ; preds = %22
  %27 = load ptr, ptr %10, align 8, !tbaa !52
  %.not.i35 = icmp eq ptr %27, null
  br i1 %.not.i35, label %29, label %28

28:                                               ; preds = %26
  store ptr %23, ptr %27, align 8, !tbaa !49
  br label %30

29:                                               ; preds = %26
  store ptr %23, ptr %5, align 8, !tbaa !48
  br label %30

30:                                               ; preds = %29, %28
  store ptr %23, ptr %10, align 8, !tbaa !52
  %31 = sub nuw nsw i64 9223372036854775807, %20
  %32 = icmp samesign ugt i64 %17, %31
  br i1 %32, label %33, label %gnu_add_sparse_entry.exit

33:                                               ; preds = %30
  tail call void (ptr, i32, ptr, ...) @archive_set_error(ptr noundef %0, i32 noundef -1, ptr noundef nonnull @.str.131) #13
  br label %gnu_add_sparse_entry.exit.thread

gnu_add_sparse_entry.exit:                        ; preds = %30
  %34 = getelementptr inbounds nuw i8, ptr %23, i64 8
  store i64 %17, ptr %34, align 8, !tbaa !76
  %35 = getelementptr inbounds nuw i8, ptr %23, i64 16
  store i64 %20, ptr %35, align 8, !tbaa !82
  %36 = icmp samesign ugt i32 %.in, 1
  br i1 %36, label %.lr.ph, label %._crit_edge, !llvm.loop !98

._crit_edge:                                      ; preds = %gnu_add_sparse_entry.exit, %.preheader
  %37 = load i64, ptr %2, align 8, !tbaa !45
  %.not.i36 = icmp eq i64 %37, 0
  br i1 %.not.i36, label %tar_flush_unconsumed.exit, label %38

38:                                               ; preds = %._crit_edge
  %39 = tail call i64 @__archive_read_consume(ptr noundef %0, i64 noundef %37) #13
  store i64 0, ptr %2, align 8, !tbaa !45
  br label %tar_flush_unconsumed.exit

tar_flush_unconsumed.exit:                        ; preds = %._crit_edge, %38
  %40 = load i64, ptr %11, align 8, !tbaa !73
  %41 = load i64, ptr %4, align 8, !tbaa !45
  %42 = sub nsw i64 %40, %41
  %43 = sub nsw i64 0, %42
  %44 = and i64 %43, 511
  %45 = icmp sgt i64 %44, %41
  br i1 %45, label %gnu_add_sparse_entry.exit.thread, label %46

46:                                               ; preds = %tar_flush_unconsumed.exit
  %47 = tail call i64 @__archive_read_consume(ptr noundef %0, i64 noundef %44) #13
  %.not = icmp eq i64 %44, %47
  %48 = add nsw i64 %44, %42
  %spec.select = select i1 %.not, i64 %48, i64 -30
  br label %gnu_add_sparse_entry.exit.thread

gnu_add_sparse_entry.exit.thread:                 ; preds = %19, %.lr.ph, %33, %25, %46, %tar_flush_unconsumed.exit, %gnu_clear_sparse_list.exit
  %.0 = phi i64 [ -30, %gnu_clear_sparse_list.exit ], [ -30, %tar_flush_unconsumed.exit ], [ %spec.select, %46 ], [ -30, %25 ], [ -30, %33 ], [ -30, %.lr.ph ], [ -30, %19 ]
  call void @llvm.lifetime.end.p0(i64 8, ptr nonnull %4) #13
  ret i64 %.0
}